target datalayout = "e-m:e-p270:32:32-p271:32:32-p272:64:64-i64:64-i128:128-f80:128-n8:16:32:64-S128"
target triple = "x86_64-pc-linux-gnu"

%struct.bb_state = type { %struct.bb_config, ptr, ptr, ptr, %union.pthread_mutex_t, i64, i64, ptr, i64, i64, i64, ptr, %union.pthread_cond_t, i8, %union.pthread_mutex_t, i64, i32, i32, i64, i64 }
%struct.bb_config = type { ptr, ptr, ptr, ptr, ptr, ptr, ptr, ptr, i32, ptr, ptr, i64, i32, ptr, i32, i32, i32, i32, ptr, ptr, ptr, ptr, i32 }
%union.pthread_cond_t = type { %struct.__pthread_cond_s }
%struct.__pthread_cond_s = type { %union.__atomic_wide_counter, %union.__atomic_wide_counter, [2 x i32], [2 x i32], i32, i32, [2 x i32] }
%union.__atomic_wide_counter = type { i64 }
%union.pthread_mutex_t = type { %struct.__pthread_mutex_s }
%struct.__pthread_mutex_s = type { i32, i32, i32, i32, i32, i16, i16, %struct.__pthread_internal_list }
%struct.__pthread_internal_list = type { ptr, ptr }
%struct.bb_alloc = type { ptr, ptr, ptr, i32, i32, i8, i64, i64, i32, i32, i32, i32, ptr, ptr, i8, ptr, ptr, ptr, ptr, i64, i64, i16, i64, i64, i32 }
%struct.buf_t = type { i32, ptr, i32, i32, i8, i8 }

; Function Attrs: nounwind uwtable
define internal void @_pack_alloc(ptr noundef %0, ptr noundef %1, i16 noundef zeroext %2) #0 {
  %4 = alloca ptr, align 8
  %5 = alloca ptr, align 8
  %6 = alloca i16, align 2
  %7 = alloca i32, align 4
  %8 = alloca i32, align 4
  %9 = alloca i32, align 4
  %10 = alloca i32, align 4
  %11 = alloca i32, align 4
  store ptr %0, ptr %4, align 8
  store ptr %1, ptr %5, align 8
  store i16 %2, ptr %6, align 2
  %12 = load i16, ptr %6, align 2
  %13 = zext i16 %12 to i32
  %14 = icmp sge i32 %13, 10240
  br i1 %14, label %15, label %139

15:                                               ; preds = %3
  br label %16

16:                                               ; preds = %15
  call void @llvm.lifetime.start.p0(i64 4, ptr %7) #9
  store i32 0, ptr %7, align 4
  %17 = load ptr, ptr %4, align 8
  %18 = getelementptr inbounds nuw %struct.bb_alloc, ptr %17, i32 0, i32 0
  %19 = load ptr, ptr %18, align 8
  %20 = icmp ne ptr %19, null
  br i1 %20, label %21, label %28

21:                                               ; preds = %16
  %22 = load ptr, ptr %4, align 8
  %23 = getelementptr inbounds nuw %struct.bb_alloc, ptr %22, i32 0, i32 0
  %24 = load ptr, ptr %23, align 8
  %25 = call i64 @strlen(ptr noundef %24) #11
  %26 = trunc i64 %25 to i32
  %27 = add i32 %26, 1
  store i32 %27, ptr %7, align 4
  br label %28

28:                                               ; preds = %21, %16
  %29 = load ptr, ptr %4, align 8
  %30 = getelementptr inbounds nuw %struct.bb_alloc, ptr %29, i32 0, i32 0
  %31 = load ptr, ptr %30, align 8
  %32 = load i32, ptr %7, align 4
  %33 = load ptr, ptr %5, align 8
  call void @packmem(ptr noundef %31, i32 noundef %32, ptr noundef %33)
  call void @llvm.lifetime.end.p0(i64 4, ptr %7) #9
  br label %34

34:                                               ; preds = %28
  %35 = load ptr, ptr %4, align 8
  %36 = getelementptr inbounds nuw %struct.bb_alloc, ptr %35, i32 0, i32 3
  %37 = load i32, ptr %36, align 8
  %38 = load ptr, ptr %5, align 8
  call void @pack32(i32 noundef %37, ptr noundef %38)
  %39 = load ptr, ptr %4, align 8
  %40 = getelementptr inbounds nuw %struct.bb_alloc, ptr %39, i32 0, i32 4
  %41 = load i32, ptr %40, align 4
  %42 = load ptr, ptr %5, align 8
  call void @pack32(i32 noundef %41, ptr noundef %42)
  %43 = load ptr, ptr %4, align 8
  %44 = getelementptr inbounds nuw %struct.bb_alloc, ptr %43, i32 0, i32 6
  %45 = load i64, ptr %44, align 8
  %46 = load ptr, ptr %5, align 8
  call void @pack_time(i64 noundef %45, ptr noundef %46)
  %47 = load ptr, ptr %4, align 8
  %48 = getelementptr inbounds nuw %struct.bb_alloc, ptr %47, i32 0, i32 10
  %49 = load i32, ptr %48, align 8
  %50 = load ptr, ptr %5, align 8
  call void @pack32(i32 noundef %49, ptr noundef %50)
  br label %51

51:                                               ; preds = %34
  call void @llvm.lifetime.start.p0(i64 4, ptr %8) #9
  store i32 0, ptr %8, align 4
  %52 = load ptr, ptr %4, align 8
  %53 = getelementptr inbounds nuw %struct.bb_alloc, ptr %52, i32 0, i32 12
  %54 = load ptr, ptr %53, align 8
  %55 = icmp ne ptr %54, null
  br i1 %55, label %56, label %63

56:                                               ; preds = %51
  %57 = load ptr, ptr %4, align 8
  %58 = getelementptr inbounds nuw %struct.bb_alloc, ptr %57, i32 0, i32 12
  %59 = load ptr, ptr %58, align 8
  %60 = call i64 @strlen(ptr noundef %59) #11
  %61 = trunc i64 %60 to i32
  %62 = add i32 %61, 1
  store i32 %62, ptr %8, align 4
  br label %63

63:                                               ; preds = %56, %51
  %64 = load ptr, ptr %4, align 8
  %65 = getelementptr inbounds nuw %struct.bb_alloc, ptr %64, i32 0, i32 12
  %66 = load ptr, ptr %65, align 8
  %67 = load i32, ptr %8, align 4
  %68 = load ptr, ptr %5, align 8
  call void @packmem(ptr noundef %66, i32 noundef %67, ptr noundef %68)
  call void @llvm.lifetime.end.p0(i64 4, ptr %8) #9
  br label %69

69:                                               ; preds = %63
  br label %70

70:                                               ; preds = %69
  call void @llvm.lifetime.start.p0(i64 4, ptr %9) #9
  store i32 0, ptr %9, align 4
  %71 = load ptr, ptr %4, align 8
  %72 = getelementptr inbounds nuw %struct.bb_alloc, ptr %71, i32 0, i32 15
  %73 = load ptr, ptr %72, align 8
  %74 = icmp ne ptr %73, null
  br i1 %74, label %75, label %82

75:                                               ; preds = %70
  %76 = load ptr, ptr %4, align 8
  %77 = getelementptr inbounds nuw %struct.bb_alloc, ptr %76, i32 0, i32 15
  %78 = load ptr, ptr %77, align 8
  %79 = call i64 @strlen(ptr noundef %78) #11
  %80 = trunc i64 %79 to i32
  %81 = add i32 %80, 1
  store i32 %81, ptr %9, align 4
  br label %82

82:                                               ; preds = %75, %70
  %83 = load ptr, ptr %4, align 8
  %84 = getelementptr inbounds nuw %struct.bb_alloc, ptr %83, i32 0, i32 15
  %85 = load ptr, ptr %84, align 8
  %86 = load i32, ptr %9, align 4
  %87 = load ptr, ptr %5, align 8
  call void @packmem(ptr noundef %85, i32 noundef %86, ptr noundef %87)
  call void @llvm.lifetime.end.p0(i64 4, ptr %9) #9
  br label %88

88:                                               ; preds = %82
  br label %89

89:                                               ; preds = %88
  call void @llvm.lifetime.start.p0(i64 4, ptr %10) #9
  store i32 0, ptr %10, align 4
  %90 = load ptr, ptr %4, align 8
  %91 = getelementptr inbounds nuw %struct.bb_alloc, ptr %90, i32 0, i32 16
  %92 = load ptr, ptr %91, align 8
  %93 = icmp ne ptr %92, null
  br i1 %93, label %94, label %101

94:                                               ; preds = %89
  %95 = load ptr, ptr %4, align 8
  %96 = getelementptr inbounds nuw %struct.bb_alloc, ptr %95, i32 0, i32 16
  %97 = load ptr, ptr %96, align 8
  %98 = call i64 @strlen(ptr noundef %97) #11
  %99 = trunc i64 %98 to i32
  %100 = add i32 %99, 1
  store i32 %100, ptr %10, align 4
  br label %101

101:                                              ; preds = %94, %89
  %102 = load ptr, ptr %4, align 8
  %103 = getelementptr inbounds nuw %struct.bb_alloc, ptr %102, i32 0, i32 16
  %104 = load ptr, ptr %103, align 8
  %105 = load i32, ptr %10, align 4
  %106 = load ptr, ptr %5, align 8
  call void @packmem(ptr noundef %104, i32 noundef %105, ptr noundef %106)
  call void @llvm.lifetime.end.p0(i64 4, ptr %10) #9
  br label %107

107:                                              ; preds = %101
  br label %108

108:                                              ; preds = %107
  call void @llvm.lifetime.start.p0(i64 4, ptr %11) #9
  store i32 0, ptr %11, align 4
  %109 = load ptr, ptr %4, align 8
  %110 = getelementptr inbounds nuw %struct.bb_alloc, ptr %109, i32 0, i32 17
  %111 = load ptr, ptr %110, align 8
  %112 = icmp ne ptr %111, null
  br i1 %112, label %113, label %120

113:                                              ; preds = %108
  %114 = load ptr, ptr %4, align 8
  %115 = getelementptr inbounds nuw %struct.bb_alloc, ptr %114, i32 0, i32 17
  %116 = load ptr, ptr %115, align 8
  %117 = call i64 @strlen(ptr noundef %116) #11
  %118 = trunc i64 %117 to i32
  %119 = add i32 %118, 1
  store i32 %119, ptr %11, align 4
  br label %120

120:                                              ; preds = %113, %108
  %121 = load ptr, ptr %4, align 8
  %122 = getelementptr inbounds nuw %struct.bb_alloc, ptr %121, i32 0, i32 17
  %123 = load ptr, ptr %122, align 8
  %124 = load i32, ptr %11, align 4
  %125 = load ptr, ptr %5, align 8
  call void @packmem(ptr noundef %123, i32 noundef %124, ptr noundef %125)
  call void @llvm.lifetime.end.p0(i64 4, ptr %11) #9
  br label %126

126:                                              ; preds = %120
  %127 = load ptr, ptr %4, align 8
  %128 = getelementptr inbounds nuw %struct.bb_alloc, ptr %127, i32 0, i32 20
  %129 = load i64, ptr %128, align 8
  %130 = load ptr, ptr %5, align 8
  call void @pack64(i64 noundef %129, ptr noundef %130)
  %131 = load ptr, ptr %4, align 8
  %132 = getelementptr inbounds nuw %struct.bb_alloc, ptr %131, i32 0, i32 21
  %133 = load i16, ptr %132, align 8
  %134 = load ptr, ptr %5, align 8
  call void @pack16(i16 noundef zeroext %133, ptr noundef %134)
  %135 = load ptr, ptr %4, align 8
  %136 = getelementptr inbounds nuw %struct.bb_alloc, ptr %135, i32 0, i32 24
  %137 = load i32, ptr %136, align 8
  %138 = load ptr, ptr %5, align 8
  call void @pack32(i32 noundef %137, ptr noundef %138)
  br label %139

139:                                              ; preds = %126, %3
  ret void
}

; Function Attrs: nounwind uwtable
define dso_local i32 @bb_pack_bufs(i32 noundef %0, ptr noundef %1, ptr noundef %2, i16 noundef zeroext %3) #0 {
  %5 = alloca i32, align 4
  %6 = alloca i32, align 4
  %7 = alloca ptr, align 8
  %8 = alloca ptr, align 8
  %9 = alloca i16, align 2
  %10 = alloca i32, align 4
  %11 = alloca i32, align 4
  %12 = alloca ptr, align 8
  %13 = alloca i32, align 4
  %14 = alloca i32, align 4
  %15 = alloca i32, align 4
  store i32 %0, ptr %6, align 4
  store ptr %1, ptr %7, align 8
  store ptr %2, ptr %8, align 8
  store i16 %3, ptr %9, align 2
  call void @llvm.lifetime.start.p0(i64 4, ptr %10) #9
  call void @llvm.lifetime.start.p0(i64 4, ptr %11) #9
  store i32 0, ptr %11, align 4
  call void @llvm.lifetime.start.p0(i64 8, ptr %12) #9
  call void @llvm.lifetime.start.p0(i64 4, ptr %13) #9
  call void @llvm.lifetime.start.p0(i64 4, ptr %14) #9
  %16 = load ptr, ptr %8, align 8
  %17 = getelementptr inbounds nuw %struct.buf_t, ptr %16, i32 0, i32 3
  %18 = load i32, ptr %17, align 4
  store i32 %18, ptr %14, align 4
  %19 = load i32, ptr %11, align 4
  %20 = load ptr, ptr %8, align 8
  call void @pack32(i32 noundef %19, ptr noundef %20)
  %21 = load ptr, ptr %7, align 8
  %22 = getelementptr inbounds nuw %struct.bb_state, ptr %21, i32 0, i32 1
  %23 = load ptr, ptr %22, align 8
  %24 = icmp ne ptr %23, null
  br i1 %24, label %27, label %25

25:                                               ; preds = %4
  %26 = load i32, ptr %11, align 4
  store i32 %26, ptr %5, align 4
  store i32 1, ptr %15, align 4
  br label %82

27:                                               ; preds = %4
  store i32 0, ptr %10, align 4
  br label %28

28:                                               ; preds = %62, %27
  %29 = load i32, ptr %10, align 4
  %30 = icmp slt i32 %29, 100
  br i1 %30, label %31, label %65

31:                                               ; preds = %28
  %32 = load ptr, ptr %7, align 8
  %33 = getelementptr inbounds nuw %struct.bb_state, ptr %32, i32 0, i32 1
  %34 = load ptr, ptr %33, align 8
  %35 = load i32, ptr %10, align 4
  %36 = sext i32 %35 to i64
  %37 = getelementptr inbounds ptr, ptr %34, i64 %36
  %38 = load ptr, ptr %37, align 8
  store ptr %38, ptr %12, align 8
  br label %39

39:                                               ; preds = %57, %31
  %40 = load ptr, ptr %12, align 8
  %41 = icmp ne ptr %40, null
  br i1 %41, label %42, label %61

42:                                               ; preds = %39
  %43 = load i32, ptr %6, align 4
  %44 = icmp eq i32 %43, 0
  br i1 %44, label %51, label %45

45:                                               ; preds = %42
  %46 = load i32, ptr %6, align 4
  %47 = load ptr, ptr %12, align 8
  %48 = getelementptr inbounds nuw %struct.bb_alloc, ptr %47, i32 0, i32 24
  %49 = load i32, ptr %48, align 8
  %50 = icmp eq i32 %46, %49
  br i1 %50, label %51, label %57

51:                                               ; preds = %45, %42
  %52 = load ptr, ptr %12, align 8
  %53 = load ptr, ptr %8, align 8
  %54 = load i16, ptr %9, align 2
  call void @_pack_alloc(ptr noundef %52, ptr noundef %53, i16 noundef zeroext %54)
  %55 = load i32, ptr %11, align 4
  %56 = add nsw i32 %55, 1
  store i32 %56, ptr %11, align 4
  br label %57

57:                                               ; preds = %51, %45
  %58 = load ptr, ptr %12, align 8
  %59 = getelementptr inbounds nuw %struct.bb_alloc, ptr %58, i32 0, i32 13
  %60 = load ptr, ptr %59, align 8
  store ptr %60, ptr %12, align 8
  br label %39, !llvm.loop !32

61:                                               ; preds = %39
  br label %62

62:                                               ; preds = %61
  %63 = load i32, ptr %10, align 4
  %64 = add nsw i32 %63, 1
  store i32 %64, ptr %10, align 4
  br label %28, !llvm.loop !33

65:                                               ; preds = %28
  %66 = load i32, ptr %11, align 4
  %67 = icmp ne i32 %66, 0
  br i1 %67, label %68, label %80

68:                                               ; preds = %65
  %69 = load ptr, ptr %8, align 8
  %70 = getelementptr inbounds nuw %struct.buf_t, ptr %69, i32 0, i32 3
  %71 = load i32, ptr %70, align 4
  store i32 %71, ptr %13, align 4
  %72 = load i32, ptr %14, align 4
  %73 = load ptr, ptr %8, align 8
  %74 = getelementptr inbounds nuw %struct.buf_t, ptr %73, i32 0, i32 3
  store i32 %72, ptr %74, align 4
  %75 = load i32, ptr %11, align 4
  %76 = load ptr, ptr %8, align 8
  call void @pack32(i32 noundef %75, ptr noundef %76)
  %77 = load i32, ptr %13, align 4
  %78 = load ptr, ptr %8, align 8
  %79 = getelementptr inbounds nuw %struct.buf_t, ptr %78, i32 0, i32 3
  store i32 %77, ptr %79, align 4
  br label %80

80:                                               ; preds = %68, %65
  %81 = load i32, ptr %11, align 4
  store i32 %81, ptr %5, align 4
  store i32 1, ptr %15, align 4
  br label %82

82:                                               ; preds = %80, %25
  call void @llvm.lifetime.end.p0(i64 4, ptr %14) #9
  call void @llvm.lifetime.end.p0(i64 4, ptr %13) #9
  call void @llvm.lifetime.end.p0(i64 8, ptr %12) #9
  call void @llvm.lifetime.end.p0(i64 4, ptr %11) #9
  call void @llvm.lifetime.end.p0(i64 4, ptr %10) #9
  %83 = load i32, ptr %5, align 4
  ret i32 %83
}