; Function Attrs: nounwind uwtable
define dso_local i32 @bb_pack_bufs(i32 noundef %0, ptr noundef readonly captures(none) %1, ptr noundef %2, i16 noundef zeroext %3) local_unnamed_addr #0 {
  %5 = getelementptr inbounds nuw i8, ptr %2, i64 20
  %6 = load i32, ptr %5, align 4
  tail call void @pack32(i32 noundef 0, ptr noundef %2) #17
  %7 = getelementptr inbounds nuw i8, ptr %1, i64 168
  %8 = load ptr, ptr %7, align 8
  %.not = icmp eq ptr %8, null
  br i1 %.not, label %79, label %.preheader

.preheader:                                       ; preds = %4
  %9 = icmp eq i32 %0, 0
  %10 = icmp ugt i16 %3, 10239
  br i1 %10, label %.preheader.split.us, label %.preheader.split

.preheader.split.us:                              ; preds = %.preheader, %._crit_edge.split.us.us
  %indvars.iv63 = phi i64 [ %indvars.iv.next64, %._crit_edge.split.us.us ], [ 0, %.preheader ]
  %.02946.us = phi i32 [ %.1.lcssa.us, %._crit_edge.split.us.us ], [ 0, %.preheader ]
  %11 = load ptr, ptr %7, align 8
  %12 = getelementptr inbounds nuw ptr, ptr %11, i64 %indvars.iv63
  %.02833.us = load ptr, ptr %12, align 8
  %.not3234.us = icmp eq ptr %.02833.us, null
  br i1 %.not3234.us, label %._crit_edge.split.us.us, label %.lr.ph.us

._crit_edge.split.us.us:                          ; preds = %66, %.preheader.split.us
  %.1.lcssa.us = phi i32 [ %.02946.us, %.preheader.split.us ], [ %.2.us.us, %66 ]
  %indvars.iv.next64 = add nuw nsw i64 %indvars.iv63, 1
  %exitcond66.not = icmp eq i64 %indvars.iv.next64, 100
  br i1 %exitcond66.not, label %.split.us, label %.preheader.split.us, !llvm.loop !32

.lr.ph.us:                                        ; preds = %.preheader.split.us, %66
  %.02836.us.us = phi ptr [ %.028.us.us, %66 ], [ %.02833.us, %.preheader.split.us ]
  %.135.us.us = phi i32 [ %.2.us.us, %66 ], [ %.02946.us, %.preheader.split.us ]
  br i1 %9, label %17, label %13

13:                                               ; preds = %.lr.ph.us
  %14 = getelementptr inbounds nuw i8, ptr %.02836.us.us, i64 168
  %15 = load i32, ptr %14, align 8
  %16 = icmp eq i32 %0, %15
  br i1 %16, label %17, label %66

17:                                               ; preds = %13, %.lr.ph.us
  %18 = load ptr, ptr %.02836.us.us, align 8
  %.not.i.us.us = icmp eq ptr %18, null
  br i1 %.not.i.us.us, label %23, label %19

19:                                               ; preds = %17
  %20 = tail call i64 @strlen(ptr noundef nonnull dereferenceable(1) %18) #19
  %21 = trunc i64 %20 to i32
  %22 = add i32 %21, 1
  br label %23

23:                                               ; preds = %19, %17
  %.042.i.us.us = phi i32 [ %22, %19 ], [ 0, %17 ]
  tail call void @packmem(ptr noundef %18, i32 noundef %.042.i.us.us, ptr noundef %2) #17
  %24 = getelementptr inbounds nuw i8, ptr %.02836.us.us, i64 24
  %25 = load i32, ptr %24, align 8
  tail call void @pack32(i32 noundef %25, ptr noundef %2) #17
  %26 = getelementptr inbounds nuw i8, ptr %.02836.us.us, i64 28
  %27 = load i32, ptr %26, align 4
  tail call void @pack32(i32 noundef %27, ptr noundef %2) #17
  %28 = getelementptr inbounds nuw i8, ptr %.02836.us.us, i64 40
  %29 = load i64, ptr %28, align 8
  tail call void @pack_time(i64 noundef %29, ptr noundef %2) #17
  %30 = getelementptr inbounds nuw i8, ptr %.02836.us.us, i64 64
  %31 = load i32, ptr %30, align 8
  tail call void @pack32(i32 noundef %31, ptr noundef %2) #17
  %32 = getelementptr inbounds nuw i8, ptr %.02836.us.us, i64 72
  %33 = load ptr, ptr %32, align 8
  %.not48.i.us.us = icmp eq ptr %33, null
  br i1 %.not48.i.us.us, label %38, label %34

34:                                               ; preds = %23
  %35 = tail call i64 @strlen(ptr noundef nonnull dereferenceable(1) %33) #19
  %36 = trunc i64 %35 to i32
  %37 = add i32 %36, 1
  br label %38

38:                                               ; preds = %34, %23
  %.041.i.us.us = phi i32 [ %37, %34 ], [ 0, %23 ]
  tail call void @packmem(ptr noundef %33, i32 noundef %.041.i.us.us, ptr noundef %2) #17
  %39 = getelementptr inbounds nuw i8, ptr %.02836.us.us, i64 96
  %40 = load ptr, ptr %39, align 8
  %.not49.i.us.us = icmp eq ptr %40, null
  br i1 %.not49.i.us.us, label %45, label %41

41:                                               ; preds = %38
  %42 = tail call i64 @strlen(ptr noundef nonnull dereferenceable(1) %40) #19
  %43 = trunc i64 %42 to i32
  %44 = add i32 %43, 1
  br label %45

45:                                               ; preds = %41, %38
  %.040.i.us.us = phi i32 [ %44, %41 ], [ 0, %38 ]
  tail call void @packmem(ptr noundef %40, i32 noundef %.040.i.us.us, ptr noundef %2) #17
  %46 = getelementptr inbounds nuw i8, ptr %.02836.us.us, i64 104
  %47 = load ptr, ptr %46, align 8
  %.not50.i.us.us = icmp eq ptr %47, null
  br i1 %.not50.i.us.us, label %52, label %48

48:                                               ; preds = %45
  %49 = tail call i64 @strlen(ptr noundef nonnull dereferenceable(1) %47) #19
  %50 = trunc i64 %49 to i32
  %51 = add i32 %50, 1
  br label %52

52:                                               ; preds = %48, %45
  %.039.i.us.us = phi i32 [ %51, %48 ], [ 0, %45 ]
  tail call void @packmem(ptr noundef %47, i32 noundef %.039.i.us.us, ptr noundef %2) #17
  %53 = getelementptr inbounds nuw i8, ptr %.02836.us.us, i64 112
  %54 = load ptr, ptr %53, align 8
  %.not51.i.us.us = icmp eq ptr %54, null
  br i1 %.not51.i.us.us, label %_pack_alloc.exit.us.us, label %55

55:                                               ; preds = %52
  %56 = tail call i64 @strlen(ptr noundef nonnull dereferenceable(1) %54) #19
  %57 = trunc i64 %56 to i32
  %58 = add i32 %57, 1
  br label %_pack_alloc.exit.us.us

_pack_alloc.exit.us.us:                           ; preds = %55, %52
  %.0.i.us.us = phi i32 [ %58, %55 ], [ 0, %52 ]
  tail call void @packmem(ptr noundef %54, i32 noundef %.0.i.us.us, ptr noundef %2) #17
  %59 = getelementptr inbounds nuw i8, ptr %.02836.us.us, i64 136
  %60 = load i64, ptr %59, align 8
  tail call void @pack64(i64 noundef %60, ptr noundef %2) #17
  %61 = getelementptr inbounds nuw i8, ptr %.02836.us.us, i64 144
  %62 = load i16, ptr %61, align 8
  tail call void @pack16(i16 noundef zeroext %62, ptr noundef %2) #17
  %63 = getelementptr inbounds nuw i8, ptr %.02836.us.us, i64 168
  %64 = load i32, ptr %63, align 8
  tail call void @pack32(i32 noundef %64, ptr noundef %2) #17
  %65 = add nsw i32 %.135.us.us, 1
  br label %66

66:                                               ; preds = %_pack_alloc.exit.us.us, %13
  %.2.us.us = phi i32 [ %65, %_pack_alloc.exit.us.us ], [ %.135.us.us, %13 ]
  %67 = getelementptr inbounds nuw i8, ptr %.02836.us.us, i64 80
  %.028.us.us = load ptr, ptr %67, align 8
  %.not32.us.us = icmp eq ptr %.028.us.us, null
  br i1 %.not32.us.us, label %._crit_edge.split.us.us, label %.lr.ph.us, !llvm.loop !33

.preheader.split:                                 ; preds = %.preheader
  br i1 %9, label %.preheader.split.split.us, label %.preheader.split.split

.preheader.split.split.us:                        ; preds = %.preheader.split, %._crit_edge.split.split.us.us
  %indvars.iv59 = phi i64 [ %indvars.iv.next60, %._crit_edge.split.split.us.us ], [ 0, %.preheader.split ]
  %.02946.us50 = phi i32 [ %.1.lcssa.us53, %._crit_edge.split.split.us.us ], [ 0, %.preheader.split ]
  %68 = getelementptr inbounds nuw ptr, ptr %8, i64 %indvars.iv59
  %.02833.us51 = load ptr, ptr %68, align 8
  %.not3234.us52 = icmp eq ptr %.02833.us51, null
  br i1 %.not3234.us52, label %._crit_edge.split.split.us.us, label %_pack_alloc.exit.us40.us

._crit_edge.split.split.us.us:                    ; preds = %_pack_alloc.exit.us40.us, %.preheader.split.split.us
  %.1.lcssa.us53 = phi i32 [ %.02946.us50, %.preheader.split.split.us ], [ %69, %_pack_alloc.exit.us40.us ]
  %indvars.iv.next60 = add nuw nsw i64 %indvars.iv59, 1
  %exitcond62.not = icmp eq i64 %indvars.iv.next60, 100
  br i1 %exitcond62.not, label %.split.us, label %.preheader.split.split.us, !llvm.loop !32

_pack_alloc.exit.us40.us:                         ; preds = %.preheader.split.split.us, %_pack_alloc.exit.us40.us
  %.02836.us38.us = phi ptr [ %.028.us42.us, %_pack_alloc.exit.us40.us ], [ %.02833.us51, %.preheader.split.split.us ]
  %.135.us39.us = phi i32 [ %69, %_pack_alloc.exit.us40.us ], [ %.02946.us50, %.preheader.split.split.us ]
  %69 = add nsw i32 %.135.us39.us, 1
  %70 = getelementptr inbounds nuw i8, ptr %.02836.us38.us, i64 80
  %.028.us42.us = load ptr, ptr %70, align 8
  %.not32.us43.us = icmp eq ptr %.028.us42.us, null
  br i1 %.not32.us43.us, label %._crit_edge.split.split.us.us, label %_pack_alloc.exit.us40.us, !llvm.loop !33

.preheader.split.split:                           ; preds = %.preheader.split, %._crit_edge.split.split
  %indvars.iv = phi i64 [ %indvars.iv.next, %._crit_edge.split.split ], [ 0, %.preheader.split ]
  %.02946 = phi i32 [ %.1.lcssa, %._crit_edge.split.split ], [ 0, %.preheader.split ]
  %71 = getelementptr inbounds nuw ptr, ptr %8, i64 %indvars.iv
  %.02833 = load ptr, ptr %71, align 8
  %.not3234 = icmp eq ptr %.02833, null
  br i1 %.not3234, label %._crit_edge.split.split, label %.lr.ph

.lr.ph:                                           ; preds = %.preheader.split.split, %.lr.ph
  %.02836 = phi ptr [ %.028, %.lr.ph ], [ %.02833, %.preheader.split.split ]
  %.135 = phi i32 [ %spec.select, %.lr.ph ], [ %.02946, %.preheader.split.split ]
  %72 = getelementptr inbounds nuw i8, ptr %.02836, i64 168
  %73 = load i32, ptr %72, align 8
  %74 = icmp eq i32 %0, %73
  %75 = zext i1 %74 to i32
  %spec.select = add nsw i32 %.135, %75
  %76 = getelementptr inbounds nuw i8, ptr %.02836, i64 80
  %.028 = load ptr, ptr %76, align 8
  %.not32 = icmp eq ptr %.028, null
  br i1 %.not32, label %._crit_edge.split.split, label %.lr.ph, !llvm.loop !33

._crit_edge.split.split:                          ; preds = %.lr.ph, %.preheader.split.split
  %.1.lcssa = phi i32 [ %.02946, %.preheader.split.split ], [ %spec.select, %.lr.ph ]
  %indvars.iv.next = add nuw nsw i64 %indvars.iv, 1
  %exitcond.not = icmp eq i64 %indvars.iv.next, 100
  br i1 %exitcond.not, label %.split.us, label %.preheader.split.split, !llvm.loop !32

.split.us:                                        ; preds = %._crit_edge.split.split, %._crit_edge.split.split.us.us, %._crit_edge.split.us.us
  %.us-phi48 = phi i32 [ %.1.lcssa.us, %._crit_edge.split.us.us ], [ %.1.lcssa.us53, %._crit_edge.split.split.us.us ], [ %.1.lcssa, %._crit_edge.split.split ]
  %.not31 = icmp eq i32 %.us-phi48, 0
  br i1 %.not31, label %79, label %77

77:                                               ; preds = %.split.us
  %78 = load i32, ptr %5, align 4
  store i32 %6, ptr %5, align 4
  tail call void @pack32(i32 noundef %.us-phi48, ptr noundef %2) #17
  store i32 %78, ptr %5, align 4
  br label %79

79:                                               ; preds = %.split.us, %77, %4
  %.0 = phi i32 [ 0, %4 ], [ %.us-phi48, %77 ], [ 0, %.split.us ]
  ret i32 %.0
}